target datalayout = "e-m:e-p270:32:32-p271:32:32-p272:64:64-i64:64-i128:128-f80:128-n8:16:32:64-S128"
target triple = "x86_64-pc-linux-gnu"

%struct.btLCP = type { i32, i32, i32, i32, i32, ptr, ptr, ptr, ptr, ptr, ptr, ptr, ptr, ptr, ptr, ptr, ptr, ptr, ptr, ptr }

; Function Attrs: mustprogress nounwind uwtable
define dso_local void @_ZN5btLCP24pC_plusequals_s_times_qCEPffS0_(ptr noundef nonnull align 8 dereferenceable(144) %0, ptr noundef %1, float noundef %2, ptr noundef %3) #1 align 2 {
  %5 = alloca ptr, align 8
  %6 = alloca ptr, align 8
  %7 = alloca float, align 4
  %8 = alloca ptr, align 8
  %9 = alloca i32, align 4
  %10 = alloca i32, align 4
  store ptr %0, ptr %5, align 8, !tbaa !41
  store ptr %1, ptr %6, align 8, !tbaa !12
  store float %2, ptr %7, align 4, !tbaa !14
  store ptr %3, ptr %8, align 8, !tbaa !12
  %11 = load ptr, ptr %5, align 8
  call void @llvm.lifetime.start.p0(i64 4, ptr %9) #9
  %12 = getelementptr inbounds nuw %struct.btLCP, ptr %11, i32 0, i32 3
  %13 = load i32, ptr %12, align 4, !tbaa !53
  store i32 %13, ptr %9, align 4, !tbaa !9
  call void @llvm.lifetime.start.p0(i64 4, ptr %10) #9
  store i32 0, ptr %10, align 4, !tbaa !9
  br label %14

14:                                               ; preds = %32, %4
  %15 = load i32, ptr %10, align 4, !tbaa !9
  %16 = load i32, ptr %9, align 4, !tbaa !9
  %17 = icmp slt i32 %15, %16
  br i1 %17, label %19, label %18

18:                                               ; preds = %14
  call void @llvm.lifetime.end.p0(i64 4, ptr %10) #9
  br label %35

19:                                               ; preds = %14
  %20 = load float, ptr %7, align 4, !tbaa !14
  %21 = load ptr, ptr %8, align 8, !tbaa !12
  %22 = load i32, ptr %10, align 4, !tbaa !9
  %23 = sext i32 %22 to i64
  %24 = getelementptr inbounds float, ptr %21, i64 %23
  %25 = load float, ptr %24, align 4, !tbaa !14
  %26 = load ptr, ptr %6, align 8, !tbaa !12
  %27 = load i32, ptr %10, align 4, !tbaa !9
  %28 = sext i32 %27 to i64
  %29 = getelementptr inbounds float, ptr %26, i64 %28
  %30 = load float, ptr %29, align 4, !tbaa !14
  %31 = call float @llvm.fmuladd.f32(float %20, float %25, float %30)
  store float %31, ptr %29, align 4, !tbaa !14
  br label %32

32:                                               ; preds = %19
  %33 = load i32, ptr %10, align 4, !tbaa !9
  %34 = add nsw i32 %33, 1
  store i32 %34, ptr %10, align 4, !tbaa !9
  br label %14, !llvm.loop !112

35:                                               ; preds = %18
  call void @llvm.lifetime.end.p0(i64 4, ptr %9) #9
  ret void
}