; Function Attrs: mustprogress nofree norecurse nosync nounwind memory(argmem: readwrite) uwtable
define dso_local void @_ZN5btLCP24pC_plusequals_s_times_qCEPffS0_(ptr noundef nonnull readonly align 8 captures(none) dereferenceable(144) %0, ptr noundef captures(none) %1, float noundef %2, ptr noundef readonly captures(none) %3) local_unnamed_addr #0 align 2 {
  %5 = getelementptr inbounds nuw i8, ptr %0, i64 12
  %6 = load i32, ptr %5, align 4, !tbaa !41
  %7 = icmp sgt i32 %6, 0
  br i1 %7, label %.lr.ph.preheader, label %._crit_edge

.lr.ph.preheader:                                 ; preds = %4
  %wide.trip.count = zext nneg i32 %6 to i64
  br label %.lr.ph

._crit_edge:                                      ; preds = %.lr.ph, %4
  ret void

.lr.ph:                                           ; preds = %.lr.ph.preheader, %.lr.ph
  %indvars.iv = phi i64 [ 0, %.lr.ph.preheader ], [ %indvars.iv.next, %.lr.ph ]
  %8 = getelementptr inbounds nuw float, ptr %3, i64 %indvars.iv
  %9 = load float, ptr %8, align 4, !tbaa !4
  %10 = getelementptr inbounds nuw float, ptr %1, i64 %indvars.iv
  %11 = load float, ptr %10, align 4, !tbaa !4
  %12 = tail call float @llvm.fmuladd.f32(float %2, float %9, float %11)
  store float %12, ptr %10, align 4, !tbaa !4
  %indvars.iv.next = add nuw nsw i64 %indvars.iv, 1
  %exitcond.not = icmp eq i64 %indvars.iv.next, %wide.trip.count
  br i1 %exitcond.not, label %._crit_edge, label %.lr.ph, !llvm.loop !100
}